target datalayout = "e-m:e-p270:32:32-p271:32:32-p272:64:64-i64:64-i128:128-f80:128-n8:16:32:64-S128"
target triple = "x86_64-pc-linux-gnu"

%class.Register = type { i32 }
%class.Address = type { %class.Register, %class.Register, %class.XMMRegister, i32, i32, i8, [3 x i8], %class.RelocationHolder }
%class.XMMRegister = type { i32 }
%class.RelocationHolder = type { [40 x i8] }
%class.XLoadBarrierStubC2 = type { ptr, %class.Address, %class.Register, %class.Register, i8, [7 x i8], %class.Label, %class.Label }
%class.Label = type <{ i32, [4 x i32], i32, ptr, i8, [7 x i8] }>

; Function Attrs: mustprogress nounwind uwtable
define linkonce_odr hidden noundef ptr @_ZNK16RelocationHolder5relocEv(ptr noundef nonnull align 8 dereferenceable(40) %0) #1 comdat align 2 {
  %2 = alloca ptr, align 8
  store ptr %0, ptr %2, align 8
  %3 = load ptr, ptr %2, align 8
  %4 = getelementptr inbounds %class.RelocationHolder, ptr %3, i32 0, i32 0
  %5 = getelementptr inbounds [40 x i8], ptr %4, i64 0, i64 0
  ret ptr %5
}

; Function Attrs: mustprogress nounwind uwtable
define linkonce_odr hidden void @_ZN5Label4initEv(ptr noundef nonnull align 8 dereferenceable(33) %0) #1 comdat align 2 {
  %2 = alloca ptr, align 8
  store ptr %0, ptr %2, align 8
  %3 = load ptr, ptr %2, align 8
  %4 = getelementptr inbounds %class.Label, ptr %3, i32 0, i32 0
  store i32 -1, ptr %4, align 8
  %5 = getelementptr inbounds %class.Label, ptr %3, i32 0, i32 2
  store i32 0, ptr %5, align 4
  %6 = getelementptr inbounds %class.Label, ptr %3, i32 0, i32 3
  store ptr null, ptr %6, align 8
  %7 = getelementptr inbounds %class.Label, ptr %3, i32 0, i32 4
  store i8 0, ptr %7, align 8
  ret void
}

; Function Attrs: mustprogress nounwind uwtable
define linkonce_odr hidden void @_ZN16RelocationHolderC2ERKS_(ptr noundef nonnull align 8 dereferenceable(40) %0, ptr noundef nonnull align 8 dereferenceable(40) %1) unnamed_addr #1 comdat align 2 {
  %3 = alloca ptr, align 8
  %4 = alloca ptr, align 8
  store ptr %0, ptr %3, align 8
  store ptr %1, ptr %4, align 8
  %5 = load ptr, ptr %3, align 8
  %6 = load ptr, ptr %4, align 8
  %7 = call noundef ptr @_ZNK16RelocationHolder5relocEv(ptr noundef nonnull align 8 dereferenceable(40) %6)
  %8 = load ptr, ptr %7, align 8
  %9 = getelementptr inbounds ptr, ptr %8, i64 2
  %10 = load ptr, ptr %9, align 8
  call void %10(ptr noundef nonnull align 8 dereferenceable(20) %7, ptr noundef nonnull align 8 dereferenceable(40) %5)
  ret void
}

; Function Attrs: mustprogress nounwind uwtable
define linkonce_odr hidden i32 @_ZNK7Address5indexEv(ptr noundef nonnull align 8 dereferenceable(64) %0) #1 comdat align 2 {
  %2 = alloca %class.Register, align 4
  %3 = alloca ptr, align 8
  store ptr %0, ptr %3, align 8
  %4 = load ptr, ptr %3, align 8
  %5 = getelementptr inbounds %class.Address, ptr %4, i32 0, i32 1
  call void @llvm.memcpy.p0.p0.i64(ptr align 4 %2, ptr align 4 %5, i64 4, i1 false)
  %6 = getelementptr inbounds %class.Register, ptr %2, i32 0, i32 0
  %7 = load i32, ptr %6, align 4
  ret i32 %7
}

; Function Attrs: mustprogress nounwind uwtable
define linkonce_odr hidden void @_Z26assert_different_registersI8RegisterJS0_EEvT_DpT0_(i32 %0, i32 %1) #1 comdat {
  %3 = alloca %class.Register, align 4
  %4 = alloca %class.Register, align 4
  %5 = getelementptr inbounds %class.Register, ptr %3, i32 0, i32 0
  store i32 %0, ptr %5, align 4
  %6 = getelementptr inbounds %class.Register, ptr %4, i32 0, i32 0
  store i32 %1, ptr %6, align 4
  ret void
}

; Function Attrs: mustprogress nounwind uwtable
define linkonce_odr hidden i32 @_ZNK7Address4baseEv(ptr noundef nonnull align 8 dereferenceable(64) %0) #1 comdat align 2 {
  %2 = alloca %class.Register, align 4
  %3 = alloca ptr, align 8
  store ptr %0, ptr %3, align 8
  %4 = load ptr, ptr %3, align 8
  %5 = getelementptr inbounds %class.Address, ptr %4, i32 0, i32 0
  call void @llvm.memcpy.p0.p0.i64(ptr align 4 %2, ptr align 8 %5, i64 4, i1 false)
  %6 = getelementptr inbounds %class.Register, ptr %2, i32 0, i32 0
  %7 = load i32, ptr %6, align 4
  ret i32 %7
}

; Function Attrs: mustprogress nounwind uwtable
define linkonce_odr hidden void @_ZN5LabelC2Ev(ptr noundef nonnull align 8 dereferenceable(33) %0) unnamed_addr #1 comdat align 2 {
  %2 = alloca ptr, align 8
  store ptr %0, ptr %2, align 8
  %3 = load ptr, ptr %2, align 8
  call void @_ZN5Label4initEv(ptr noundef nonnull align 8 dereferenceable(33) %3)
  ret void
}

; Function Attrs: mustprogress nounwind uwtable
define linkonce_odr hidden void @_ZN7AddressC2ERKS_(ptr noundef nonnull align 8 dereferenceable(64) %0, ptr noundef nonnull align 8 dereferenceable(64) %1) unnamed_addr #1 comdat align 2 {
  %3 = alloca ptr, align 8
  %4 = alloca ptr, align 8
  store ptr %0, ptr %3, align 8
  store ptr %1, ptr %4, align 8
  %5 = load ptr, ptr %3, align 8
  %6 = getelementptr inbounds %class.Address, ptr %5, i32 0, i32 0
  %7 = load ptr, ptr %4, align 8
  %8 = getelementptr inbounds %class.Address, ptr %7, i32 0, i32 0
  call void @llvm.memcpy.p0.p0.i64(ptr align 8 %6, ptr align 8 %8, i64 21, i1 false)
  %9 = getelementptr inbounds %class.Address, ptr %5, i32 0, i32 7
  %10 = load ptr, ptr %4, align 8
  %11 = getelementptr inbounds %class.Address, ptr %10, i32 0, i32 7
  call void @_ZN16RelocationHolderC2ERKS_(ptr noundef nonnull align 8 dereferenceable(40) %9, ptr noundef nonnull align 8 dereferenceable(40) %11)
  ret void
}

; Function Attrs: mustprogress nounwind uwtable
define hidden void @_ZN18XLoadBarrierStubC2C2EPK8MachNode7Address8RegisterS4_h(ptr noundef nonnull align 8 dereferenceable(168) %0, ptr noundef %1, ptr noundef %2, i32 %3, i32 %4, i8 noundef zeroext %5) unnamed_addr #1 align 2 {
  %7 = alloca %class.Register, align 4
  %8 = alloca %class.Register, align 4
  %9 = alloca ptr, align 8
  %10 = alloca ptr, align 8
  %11 = alloca ptr, align 8
  %12 = alloca i8, align 1
  %13 = alloca %class.Register, align 4
  %14 = alloca %class.Register, align 4
  %15 = alloca %class.Register, align 4
  %16 = alloca %class.Register, align 4
  %17 = getelementptr inbounds %class.Register, ptr %7, i32 0, i32 0
  store i32 %3, ptr %17, align 4
  %18 = getelementptr inbounds %class.Register, ptr %8, i32 0, i32 0
  store i32 %4, ptr %18, align 4
  store ptr %0, ptr %9, align 8
  store ptr %1, ptr %10, align 8
  store ptr %2, ptr %11, align 8
  store i8 %5, ptr %12, align 1
  %19 = load ptr, ptr %9, align 8
  %20 = getelementptr inbounds %class.XLoadBarrierStubC2, ptr %19, i32 0, i32 0
  %21 = load ptr, ptr %10, align 8
  store ptr %21, ptr %20, align 8
  %22 = getelementptr inbounds %class.XLoadBarrierStubC2, ptr %19, i32 0, i32 1
  call void @_ZN7AddressC2ERKS_(ptr noundef nonnull align 8 dereferenceable(64) %22, ptr noundef nonnull align 8 dereferenceable(64) %2)
  %23 = getelementptr inbounds %class.XLoadBarrierStubC2, ptr %19, i32 0, i32 2
  call void @llvm.memcpy.p0.p0.i64(ptr align 8 %23, ptr align 4 %7, i64 4, i1 false)
  %24 = getelementptr inbounds %class.XLoadBarrierStubC2, ptr %19, i32 0, i32 3
  call void @llvm.memcpy.p0.p0.i64(ptr align 4 %24, ptr align 4 %8, i64 4, i1 false)
  %25 = getelementptr inbounds %class.XLoadBarrierStubC2, ptr %19, i32 0, i32 4
  %26 = load i8, ptr %12, align 1
  store i8 %26, ptr %25, align 8
  %27 = getelementptr inbounds %class.XLoadBarrierStubC2, ptr %19, i32 0, i32 6
  call void @_ZN5LabelC2Ev(ptr noundef nonnull align 8 dereferenceable(33) %27)
  %28 = getelementptr inbounds %class.XLoadBarrierStubC2, ptr %19, i32 0, i32 7
  call void @_ZN5LabelC2Ev(ptr noundef nonnull align 8 dereferenceable(33) %28)
  call void @llvm.memcpy.p0.p0.i64(ptr align 4 %13, ptr align 4 %7, i64 4, i1 false)
  %29 = call i32 @_ZNK7Address4baseEv(ptr noundef nonnull align 8 dereferenceable(64) %2)
  %30 = getelementptr inbounds %class.Register, ptr %14, i32 0, i32 0
  store i32 %29, ptr %30, align 4
  %31 = getelementptr inbounds %class.Register, ptr %13, i32 0, i32 0
  %32 = load i32, ptr %31, align 4
  %33 = getelementptr inbounds %class.Register, ptr %14, i32 0, i32 0
  %34 = load i32, ptr %33, align 4
  call void @_Z26assert_different_registersI8RegisterJS0_EEvT_DpT0_(i32 %32, i32 %34)
  call void @llvm.memcpy.p0.p0.i64(ptr align 4 %15, ptr align 4 %7, i64 4, i1 false)
  %35 = call i32 @_ZNK7Address5indexEv(ptr noundef nonnull align 8 dereferenceable(64) %2)
  %36 = getelementptr inbounds %class.Register, ptr %16, i32 0, i32 0
  store i32 %35, ptr %36, align 4
  %37 = getelementptr inbounds %class.Register, ptr %15, i32 0, i32 0
  %38 = load i32, ptr %37, align 4
  %39 = getelementptr inbounds %class.Register, ptr %16, i32 0, i32 0
  %40 = load i32, ptr %39, align 4
  call void @_Z26assert_different_registersI8RegisterJS0_EEvT_DpT0_(i32 %38, i32 %40)
  ret void
}