; Function Attrs: mustprogress nounwind uwtable
define hidden void @_ZN18XLoadBarrierStubC2C2EPK8MachNode7Address8RegisterS4_h(ptr noundef nonnull align 8 dereferenceable(168) %0, ptr noundef %1, ptr noundef %2, i32 %3, i32 %4, i8 noundef zeroext %5) unnamed_addr #0 align 2 {
  store ptr %1, ptr %0, align 8
  %7 = getelementptr inbounds i8, ptr %0, i64 8
  tail call void @llvm.memcpy.p0.p0.i64(ptr noundef nonnull align 8 dereferenceable(21) %7, ptr noundef nonnull align 8 dereferenceable(21) %2, i64 21, i1 false)
  %8 = getelementptr inbounds i8, ptr %0, i64 32
  %9 = getelementptr inbounds i8, ptr %2, i64 24
  %10 = load ptr, ptr %9, align 8
  %11 = getelementptr inbounds i8, ptr %10, i64 16
  %12 = load ptr, ptr %11, align 8
  tail call void %12(ptr noundef nonnull align 8 dereferenceable(20) %9, ptr noundef nonnull align 8 dereferenceable(40) %8) #12
  %13 = getelementptr inbounds i8, ptr %0, i64 72
  store i32 %3, ptr %13, align 8
  %14 = getelementptr inbounds i8, ptr %0, i64 76
  store i32 %4, ptr %14, align 4
  %15 = getelementptr inbounds i8, ptr %0, i64 80
  store i8 %5, ptr %15, align 8
  %16 = getelementptr inbounds i8, ptr %0, i64 88
  store i32 -1, ptr %16, align 8
  %17 = getelementptr inbounds i8, ptr %0, i64 108
  store i32 0, ptr %17, align 4
  %18 = getelementptr inbounds i8, ptr %0, i64 112
  store ptr null, ptr %18, align 8
  %19 = getelementptr inbounds i8, ptr %0, i64 120
  store i8 0, ptr %19, align 8
  %20 = getelementptr inbounds i8, ptr %0, i64 128
  store i32 -1, ptr %20, align 8
  %21 = getelementptr inbounds i8, ptr %0, i64 148
  store i32 0, ptr %21, align 4
  %22 = getelementptr inbounds i8, ptr %0, i64 152
  store ptr null, ptr %22, align 8
  %23 = getelementptr inbounds i8, ptr %0, i64 160
  store i8 0, ptr %23, align 8
  ret void
}